; Function Attrs: mustprogress uwtable
define void @_ZN3zmq15tcp_connecter_t17add_connect_timerEv(ptr noundef nonnull align 8 dereferenceable(1552) %0) local_unnamed_addr #0 align 2 {
  %2 = getelementptr inbounds nuw i8, ptr %0, i64 340
  %3 = load i32, ptr %2, align 4, !tbaa !94
  %4 = icmp sgt i32 %3, 0
  br i1 %4, label %5, label %8

5:                                                ; preds = %1
  %6 = getelementptr inbounds nuw i8, ptr %0, i64 1448
  tail call void @_ZN3zmq11io_object_t9add_timerEii(ptr noundef nonnull align 8 dereferenceable(16) %6, i32 noundef %3, i32 noundef 2)
  %7 = getelementptr inbounds nuw i8, ptr %0, i64 1544
  store i8 1, ptr %7, align 8, !tbaa !6
  br label %8

8:                                                ; preds = %5, %1
  ret void
}